; ModuleID = '36/986.c'
source_filename = "36/986.c"
target datalayout = "e-m:e-p270:32:32-p271:32:32-p272:64:64-i64:64-f80:128-n8:16:32:64-S128"
target triple = "x86_64-pc-linux-gnu"

@.str = private unnamed_addr constant [6 x i8] c"%s %s\00", align 1
@.str.1 = private unnamed_addr constant [5 x i8] c"YES\0A\00", align 1
@.str.2 = private unnamed_addr constant [4 x i8] c"NO\0A\00", align 1

; Function Attrs: noinline nounwind uwtable
define dso_local i32 @main() #0 {
  %1 = alloca i32, align 4
  %2 = alloca i32, align 4
  %3 = alloca i32, align 4
  %4 = alloca i32, align 4
  %5 = alloca i32, align 4
  %6 = alloca i8, align 1
  %7 = alloca [50 x i8], align 16
  %8 = alloca [50 x i8], align 16
  store i32 0, i32* %1, align 4
  %9 = bitcast [50 x i8]* %7 to i8*
  call void @llvm.memset.p0i8.i64(i8* align 16 %9, i8 0, i64 50, i1 false)
  %10 = bitcast [50 x i8]* %8 to i8*
  call void @llvm.memset.p0i8.i64(i8* align 16 %10, i8 0, i64 50, i1 false)
  %11 = getelementptr inbounds [50 x i8], [50 x i8]* %7, i64 0, i64 0
  %12 = getelementptr inbounds [50 x i8], [50 x i8]* %8, i64 0, i64 0
  %13 = call i32 (i8*, ...) @__isoc99_scanf(i8* getelementptr inbounds ([6 x i8], [6 x i8]* @.str, i64 0, i64 0), i8* %11, i8* %12)
  %14 = getelementptr inbounds [50 x i8], [50 x i8]* %7, i64 0, i64 0
  %15 = call i64 @strlen(i8* %14) #4
  %16 = trunc i64 %15 to i32
  store i32 %16, i32* %2, align 4
  %17 = getelementptr inbounds [50 x i8], [50 x i8]* %8, i64 0, i64 0
  %18 = call i64 @strlen(i8* %17) #4
  %19 = trunc i64 %18 to i32
  store i32 %19, i32* %3, align 4
  store i32 1, i32* %4, align 4
  br label %20

20:                                               ; preds = %67, %0
  %21 = load i32, i32* %4, align 4
  %22 = load i32, i32* %2, align 4
  %23 = icmp slt i32 %21, %22
  br i1 %23, label %24, label %70

24:                                               ; preds = %20
  store i32 0, i32* %5, align 4
  br label %25

25:                                               ; preds = %63, %24
  %26 = load i32, i32* %5, align 4
  %27 = load i32, i32* %2, align 4
  %28 = load i32, i32* %4, align 4
  %29 = sub nsw i32 %27, %28
  %30 = icmp slt i32 %26, %29
  br i1 %30, label %31, label %66

31:                                               ; preds = %25
  %32 = load i32, i32* %5, align 4
  %33 = sext i32 %32 to i64
  %34 = getelementptr inbounds [50 x i8], [50 x i8]* %7, i64 0, i64 %33
  %35 = load i8, i8* %34, align 1
  %36 = sext i8 %35 to i32
  %37 = load i32, i32* %5, align 4
  %38 = add nsw i32 %37, 1
  %39 = sext i32 %38 to i64
  %40 = getelementptr inbounds [50 x i8], [50 x i8]* %7, i64 0, i64 %39
  %41 = load i8, i8* %40, align 1
  %42 = sext i8 %41 to i32
  %43 = icmp sgt i32 %36, %42
  br i1 %43, label %44, label %62

44:                                               ; preds = %31
  %45 = load i32, i32* %5, align 4
  %46 = sext i32 %45 to i64
  %47 = getelementptr inbounds [50 x i8], [50 x i8]* %7, i64 0, i64 %46
  %48 = load i8, i8* %47, align 1
  store i8 %48, i8* %6, align 1
  %49 = load i32, i32* %5, align 4
  %50 = add nsw i32 %49, 1
  %51 = sext i32 %50 to i64
  %52 = getelementptr inbounds [50 x i8], [50 x i8]* %7, i64 0, i64 %51
  %53 = load i8, i8* %52, align 1
  %54 = load i32, i32* %5, align 4
  %55 = sext i32 %54 to i64
  %56 = getelementptr inbounds [50 x i8], [50 x i8]* %7, i64 0, i64 %55
  store i8 %53, i8* %56, align 1
  %57 = load i8, i8* %6, align 1
  %58 = load i32, i32* %5, align 4
  %59 = add nsw i32 %58, 1
  %60 = sext i32 %59 to i64
  %61 = getelementptr inbounds [50 x i8], [50 x i8]* %7, i64 0, i64 %60
  store i8 %57, i8* %61, align 1
  br label %62

62:                                               ; preds = %44, %31
  br label %63

63:                                               ; preds = %62
  %64 = load i32, i32* %5, align 4
  %65 = add nsw i32 %64, 1
  store i32 %65, i32* %5, align 4
  br label %25

66:                                               ; preds = %25
  br label %67

67:                                               ; preds = %66
  %68 = load i32, i32* %4, align 4
  %69 = add nsw i32 %68, 1
  store i32 %69, i32* %4, align 4
  br label %20

70:                                               ; preds = %20
  store i32 1, i32* %4, align 4
  br label %71

71:                                               ; preds = %118, %70
  %72 = load i32, i32* %4, align 4
  %73 = load i32, i32* %3, align 4
  %74 = icmp slt i32 %72, %73
  br i1 %74, label %75, label %121

75:                                               ; preds = %71
  store i32 0, i32* %5, align 4
  br label %76

76:                                               ; preds = %114, %75
  %77 = load i32, i32* %5, align 4
  %78 = load i32, i32* %3, align 4
  %79 = load i32, i32* %4, align 4
  %80 = sub nsw i32 %78, %79
  %81 = icmp slt i32 %77, %80
  br i1 %81, label %82, label %117

82:                                               ; preds = %76
  %83 = load i32, i32* %5, align 4
  %84 = sext i32 %83 to i64
  %85 = getelementptr inbounds [50 x i8], [50 x i8]* %8, i64 0, i64 %84
  %86 = load i8, i8* %85, align 1
  %87 = sext i8 %86 to i32
  %88 = load i32, i32* %5, align 4
  %89 = add nsw i32 %88, 1
  %90 = sext i32 %89 to i64
  %91 = getelementptr inbounds [50 x i8], [50 x i8]* %8, i64 0, i64 %90
  %92 = load i8, i8* %91, align 1
  %93 = sext i8 %92 to i32
  %94 = icmp sgt i32 %87, %93
  br i1 %94, label %95, label %113

95:                                               ; preds = %82
  %96 = load i32, i32* %5, align 4
  %97 = sext i32 %96 to i64
  %98 = getelementptr inbounds [50 x i8], [50 x i8]* %8, i64 0, i64 %97
  %99 = load i8, i8* %98, align 1
  store i8 %99, i8* %6, align 1
  %100 = load i32, i32* %5, align 4
  %101 = add nsw i32 %100, 1
  %102 = sext i32 %101 to i64
  %103 = getelementptr inbounds [50 x i8], [50 x i8]* %8, i64 0, i64 %102
  %104 = load i8, i8* %103, align 1
  %105 = load i32, i32* %5, align 4
  %106 = sext i32 %105 to i64
  %107 = getelementptr inbounds [50 x i8], [50 x i8]* %8, i64 0, i64 %106
  store i8 %104, i8* %107, align 1
  %108 = load i8, i8* %6, align 1
  %109 = load i32, i32* %5, align 4
  %110 = add nsw i32 %109, 1
  %111 = sext i32 %110 to i64
  %112 = getelementptr inbounds [50 x i8], [50 x i8]* %8, i64 0, i64 %111
  store i8 %108, i8* %112, align 1
  br label %113

113:                                              ; preds = %95, %82
  br label %114

114:                                              ; preds = %113
  %115 = load i32, i32* %5, align 4
  %116 = add nsw i32 %115, 1
  store i32 %116, i32* %5, align 4
  br label %76

117:                                              ; preds = %76
  br label %118

118:                                              ; preds = %117
  %119 = load i32, i32* %4, align 4
  %120 = add nsw i32 %119, 1
  store i32 %120, i32* %4, align 4
  br label %71

121:                                              ; preds = %71
  %122 = getelementptr inbounds [50 x i8], [50 x i8]* %7, i64 0, i64 0
  %123 = getelementptr inbounds [50 x i8], [50 x i8]* %8, i64 0, i64 0
  %124 = call i32 @strcmp(i8* %122, i8* %123) #4
  %125 = icmp eq i32 %124, 0
  br i1 %125, label %126, label %128

126:                                              ; preds = %121
  %127 = call i32 (i8*, ...) @printf(i8* getelementptr inbounds ([5 x i8], [5 x i8]* @.str.1, i64 0, i64 0))
  br label %130

128:                                              ; preds = %121
  %129 = call i32 (i8*, ...) @printf(i8* getelementptr inbounds ([4 x i8], [4 x i8]* @.str.2, i64 0, i64 0))
  br label %130

130:                                              ; preds = %128, %126
  ret i32 0
}

; Function Attrs: argmemonly nounwind willreturn
declare void @llvm.memset.p0i8.i64(i8* nocapture writeonly, i8, i64, i1 immarg) #1

declare dso_local i32 @__isoc99_scanf(i8*, ...) #2

; Function Attrs: nounwind readonly
declare dso_local i64 @strlen(i8*) #3

; Function Attrs: nounwind readonly
declare dso_local i32 @strcmp(i8*, i8*) #3

declare dso_local i32 @printf(i8*, ...) #2


!llvm.module.flags = !{!0}
!llvm.ident = !{!1}

!0 = !{i32 1, !"wchar_size", i32 4}
!1 = !{!"clang version 10.0.0-4ubuntu1 "}
